; Function Attrs: mustprogress uwtable
define hidden void @ncnn_copy_cut_border(ptr noundef %0, ptr noundef %1, i32 noundef %2, i32 noundef %3, i32 noundef %4, i32 noundef %5, ptr noundef readonly %6) local_unnamed_addr #1 {
  %8 = alloca %"class.ncnn::Option", align 8
  %.not = icmp eq ptr %6, null
  br i1 %.not, label %10, label %9

9:                                                ; preds = %7
  call void @llvm.memcpy.p0.p0.i64(ptr noundef nonnull align 8 dereferenceable(64) %8, ptr noundef nonnull align 8 dereferenceable(64) %6, i64 64, i1 false)
  br label %11

10:                                               ; preds = %7
  call void @_ZN4ncnn6OptionC1Ev(ptr noundef nonnull align 8 dereferenceable(64) %8)
  br label %11

11:                                               ; preds = %10, %9
  call void @_ZN4ncnn15copy_cut_borderERKNS_3MatERS0_iiiiRKNS_6OptionE(ptr noundef nonnull align 8 dereferenceable(72) %0, ptr noundef nonnull align 8 dereferenceable(72) %1, i32 noundef %2, i32 noundef %3, i32 noundef %4, i32 noundef %5, ptr noundef nonnull align 8 dereferenceable(64) %8)
  ret void
}